target datalayout = "e-m:e-p270:32:32-p271:32:32-p272:64:64-i64:64-i128:128-f80:128-n8:16:32:64-S128"
target triple = "x86_64-pc-linux-gnu"

%"class.casadi::GenericShared" = type { ptr }
%"class.std::vector.39" = type { %"struct.std::_Vector_base.40" }
%"struct.std::_Vector_base.40" = type { %"struct.std::_Vector_base<casadi::GenericType, std::allocator<casadi::GenericType>>::_Vector_impl" }
%"struct.std::_Vector_base<casadi::GenericType, std::allocator<casadi::GenericType>>::_Vector_impl" = type { %"struct.std::_Vector_base<casadi::GenericType, std::allocator<casadi::GenericType>>::_Vector_impl_data" }
%"struct.std::_Vector_base<casadi::GenericType, std::allocator<casadi::GenericType>>::_Vector_impl_data" = type { ptr, ptr, ptr }
%"class.casadi::GenericTypeBase" = type { %"class.casadi::SharedObjectInternal" }
%"class.casadi::SharedObjectInternal" = type { %"class.casadi::GenericSharedInternal", i64 }
%"class.casadi::GenericSharedInternal" = type { ptr, ptr }
%"class.casadi::GenericTypeInternal.76" = type { %"class.casadi::GenericTypeBase", %"class.std::vector.39" }

; Function Attrs: mustprogress nounwind uwtable
define linkonce_odr hidden void @_ZN6casadi21GenericSharedInternalINS_12SharedObjectENS_20SharedObjectInternalEEC2Ev(ptr noundef nonnull align 8 dereferenceable(16) %0) unnamed_addr #7 comdat align 2 {
  %2 = alloca ptr, align 8
  store ptr %0, ptr %2, align 8, !tbaa !536
  %3 = load ptr, ptr %2, align 8
  store ptr getelementptr inbounds inrange(-16, 16) ({ [4 x ptr] }, ptr @_ZTVN6casadi21GenericSharedInternalINS_12SharedObjectENS_20SharedObjectInternalEEE, i32 0, i32 0, i32 2), ptr %3, align 8, !tbaa !10
  %4 = getelementptr inbounds nuw %"class.casadi::SharedObjectInternal", ptr %3, i32 0, i32 1
  store i64 0, ptr %4, align 8, !tbaa !538
  %5 = getelementptr inbounds nuw %"class.casadi::GenericSharedInternal", ptr %3, i32 0, i32 1
  store ptr null, ptr %5, align 8, !tbaa !539
  ret void
}

; Function Attrs: mustprogress uwtable
define linkonce_odr hidden void @_ZN6casadi20SharedObjectInternalC2Ev(ptr noundef nonnull align 8 dereferenceable(24) %0) unnamed_addr #4 comdat align 2 {
  %2 = alloca ptr, align 8
  store ptr %0, ptr %2, align 8, !tbaa !235
  %3 = load ptr, ptr %2, align 8
  call void @_ZN6casadi21GenericSharedInternalINS_12SharedObjectENS_20SharedObjectInternalEEC2Ev(ptr noundef nonnull align 8 dereferenceable(16) %3)
  store ptr getelementptr inbounds inrange(-16, 32) ({ [6 x ptr] }, ptr @_ZTVN6casadi20SharedObjectInternalE, i32 0, i32 0, i32 2), ptr %3, align 8, !tbaa !10
  ret void
}

; Function Attrs: inlinehint mustprogress uwtable
define linkonce_odr hidden void @_ZN6casadi15GenericTypeBaseC2Ev(ptr noundef nonnull align 8 dereferenceable(24) %0) unnamed_addr #8 comdat align 2 {
  %2 = alloca ptr, align 8
  store ptr %0, ptr %2, align 8, !tbaa !534
  %3 = load ptr, ptr %2, align 8
  call void @_ZN6casadi20SharedObjectInternalC2Ev(ptr noundef nonnull align 8 dereferenceable(24) %3)
  store ptr getelementptr inbounds inrange(-16, 48) ({ [8 x ptr] }, ptr @_ZTVN6casadi15GenericTypeBaseE, i32 0, i32 0, i32 2), ptr %3, align 8, !tbaa !10
  ret void
}

; Function Attrs: mustprogress nounwind uwtable
define linkonce_odr hidden void @_ZN6casadi13GenericSharedINS_12SharedObjectENS_20SharedObjectInternalEEC2Ev(ptr noundef nonnull align 8 dereferenceable(8) %0) unnamed_addr #7 comdat align 2 {
  %2 = alloca ptr, align 8
  store ptr %0, ptr %2, align 8, !tbaa !359
  %3 = load ptr, ptr %2, align 8
  %4 = getelementptr inbounds nuw %"class.casadi::GenericShared", ptr %3, i32 0, i32 0
  store ptr null, ptr %4, align 8, !tbaa !361
  ret void
}

; Function Attrs: mustprogress nounwind uwtable
define linkonce_odr hidden void @_ZN6casadi13GenericSharedINS_12SharedObjectENS_20SharedObjectInternalEED2Ev(ptr noundef nonnull align 8 dereferenceable(8) %0) unnamed_addr #7 comdat align 2 personality ptr @__gxx_personality_v0 {
  %2 = alloca ptr, align 8
  store ptr %0, ptr %2, align 8, !tbaa !359
  %3 = load ptr, ptr %2, align 8
  invoke void @_ZN6casadi13GenericSharedINS_12SharedObjectENS_20SharedObjectInternalEE10count_downEv(ptr noundef nonnull align 8 dereferenceable(8) %3)
          to label %4 unwind label %5

4:                                                ; preds = %1
  ret void

5:                                                ; preds = %1
  %6 = landingpad { ptr, i32 }
          catch ptr null
  %7 = extractvalue { ptr, i32 } %6, 0
  call void @__clang_call_terminate(ptr %7) #21
  unreachable
}

; Function Attrs: mustprogress uwtable
define linkonce_odr hidden void @_ZN6casadi19GenericTypeInternalILNS_6TypeIDE19ESt6vectorINS_11GenericTypeESaIS3_EEEC2ERKS5_(ptr noundef nonnull align 8 dereferenceable(48) %0, ptr noundef nonnull align 8 dereferenceable(24) %1) unnamed_addr #4 comdat align 2 personality ptr @__gxx_personality_v0 {
  %3 = alloca ptr, align 8
  %4 = alloca ptr, align 8
  %5 = alloca ptr, align 8
  %6 = alloca i32, align 4
  store ptr %0, ptr %3, align 8, !tbaa !202
  store ptr %1, ptr %4, align 8, !tbaa !61
  %7 = load ptr, ptr %3, align 8
  call void @_ZN6casadi15GenericTypeBaseC2Ev(ptr noundef nonnull align 8 dereferenceable(24) %7)
  store ptr getelementptr inbounds inrange(-16, 48) ({ [8 x ptr] }, ptr @_ZTVN6casadi19GenericTypeInternalILNS_6TypeIDE19ESt6vectorINS_11GenericTypeESaIS3_EEEE, i32 0, i32 0, i32 2), ptr %7, align 8, !tbaa !10
  %8 = getelementptr inbounds nuw %"class.casadi::GenericTypeInternal.76", ptr %7, i32 0, i32 1
  %9 = load ptr, ptr %4, align 8, !tbaa !61
  invoke void @_ZNSt6vectorIN6casadi11GenericTypeESaIS1_EEC2ERKS3_(ptr noundef nonnull align 8 dereferenceable(24) %8, ptr noundef nonnull align 8 dereferenceable(24) %9)
          to label %10 unwind label %11

10:                                               ; preds = %2
  ret void

11:                                               ; preds = %2
  %12 = landingpad { ptr, i32 }
          cleanup
  %13 = extractvalue { ptr, i32 } %12, 0
  store ptr %13, ptr %5, align 8
  %14 = extractvalue { ptr, i32 } %12, 1
  store i32 %14, ptr %6, align 4
  call void @_ZN6casadi21GenericSharedInternalINS_12SharedObjectENS_20SharedObjectInternalEED2Ev(ptr noundef nonnull align 8 dereferenceable(24) %7) #3
  br label %15

15:                                               ; preds = %11
  %16 = load ptr, ptr %5, align 8
  %17 = load i32, ptr %6, align 4
  %18 = insertvalue { ptr, i32 } poison, ptr %16, 0
  %19 = insertvalue { ptr, i32 } %18, i32 %17, 1
  resume { ptr, i32 } %19
}

; Function Attrs: inlinehint mustprogress uwtable
define linkonce_odr hidden void @_ZN6casadi12SharedObjectC2Ev(ptr noundef nonnull align 8 dereferenceable(8) %0) unnamed_addr #8 comdat align 2 {
  %2 = alloca ptr, align 8
  store ptr %0, ptr %2, align 8, !tbaa !102
  %3 = load ptr, ptr %2, align 8
  call void @_ZN6casadi13GenericSharedINS_12SharedObjectENS_20SharedObjectInternalEEC2Ev(ptr noundef nonnull align 8 dereferenceable(8) %3)
  ret void
}

; Function Attrs: mustprogress uwtable
define void @_ZN6casadi11GenericTypeC2ERKSt6vectorIS0_SaIS0_EE(ptr noundef nonnull align 8 dereferenceable(8) %0, ptr noundef nonnull align 8 dereferenceable(24) %1) unnamed_addr #4 align 2 personality ptr @__gxx_personality_v0 {
  %3 = alloca ptr, align 8
  %4 = alloca ptr, align 8
  %5 = alloca ptr, align 8
  %6 = alloca i32, align 4
  store ptr %0, ptr %3, align 8, !tbaa !3
  store ptr %1, ptr %4, align 8, !tbaa !61
  %7 = load ptr, ptr %3, align 8
  call void @_ZN6casadi12SharedObjectC2Ev(ptr noundef nonnull align 8 dereferenceable(8) %7)
  %8 = invoke noalias noundef nonnull ptr @_Znwm(i64 noundef 48) #22
          to label %9 unwind label %13

9:                                                ; preds = %2
  %10 = load ptr, ptr %4, align 8, !tbaa !61
  invoke void @_ZN6casadi19GenericTypeInternalILNS_6TypeIDE19ESt6vectorINS_11GenericTypeESaIS3_EEEC2ERKS5_(ptr noundef nonnull align 8 dereferenceable(48) %8, ptr noundef nonnull align 8 dereferenceable(24) %10)
          to label %11 unwind label %17

11:                                               ; preds = %9
  invoke void @_ZN6casadi13GenericSharedINS_12SharedObjectENS_20SharedObjectInternalEE3ownEPS2_(ptr noundef nonnull align 8 dereferenceable(8) %7, ptr noundef %8)
          to label %12 unwind label %13

12:                                               ; preds = %11
  ret void

13:                                               ; preds = %11, %2
  %14 = landingpad { ptr, i32 }
          cleanup
  %15 = extractvalue { ptr, i32 } %14, 0
  store ptr %15, ptr %5, align 8
  %16 = extractvalue { ptr, i32 } %14, 1
  store i32 %16, ptr %6, align 4
  br label %21

17:                                               ; preds = %9
  %18 = landingpad { ptr, i32 }
          cleanup
  %19 = extractvalue { ptr, i32 } %18, 0
  store ptr %19, ptr %5, align 8
  %20 = extractvalue { ptr, i32 } %18, 1
  store i32 %20, ptr %6, align 4
  call void @_ZdlPvm(ptr noundef %8, i64 noundef 48) #23
  br label %21

21:                                               ; preds = %17, %13
  call void @_ZN6casadi13GenericSharedINS_12SharedObjectENS_20SharedObjectInternalEED2Ev(ptr noundef nonnull align 8 dereferenceable(8) %7) #3
  br label %22

22:                                               ; preds = %21
  %23 = load ptr, ptr %5, align 8
  %24 = load i32, ptr %6, align 4
  %25 = insertvalue { ptr, i32 } poison, ptr %23, 0
  %26 = insertvalue { ptr, i32 } %25, i32 %24, 1
  resume { ptr, i32 } %26
}